target datalayout = "e-m:e-p270:32:32-p271:32:32-p272:64:64-i64:64-i128:128-f80:128-n8:16:32:64-S128"
target triple = "x86_64-pc-linux-gnu"

%struct.AVFilterContext = type { ptr, ptr, ptr, ptr, ptr, i32, ptr, ptr, i32, ptr, ptr, i32, i32, ptr, ptr, ptr, ptr, i32, ptr, i32, i32 }
%struct.LoudNormContext = type { ptr, double, double, double, double, double, double, double, double, i32, i32, i32, ptr, i32, i32, i32, [30 x double], [21 x double], double, i32, [2 x double], ptr, ptr, i32, i32, i32, i32, i32, i32, i32, i32, [30 x i64], i32, i32, i32, i32, ptr, ptr }

@query_formats.input_srate = internal constant [2 x i32] [i32 192000, i32 -1], align 4
@query_formats.sample_fmts = internal constant [2 x i32] [i32 4, i32 -1], align 4

; Function Attrs: nounwind uwtable
define internal i32 @query_formats(ptr noundef %0, ptr noundef %1, ptr noundef %2) #1 {
  %4 = alloca i32, align 4
  %5 = alloca ptr, align 8
  %6 = alloca ptr, align 8
  %7 = alloca ptr, align 8
  %8 = alloca ptr, align 8
  %9 = alloca i32, align 4
  %10 = alloca i32, align 4
  store ptr %0, ptr %5, align 8, !tbaa !4
  store ptr %1, ptr %6, align 8, !tbaa !46
  store ptr %2, ptr %7, align 8, !tbaa !46
  call void @llvm.lifetime.start.p0(i64 8, ptr %8) #7
  %11 = load ptr, ptr %5, align 8, !tbaa !4
  %12 = getelementptr inbounds nuw %struct.AVFilterContext, ptr %11, i32 0, i32 9
  %13 = load ptr, ptr %12, align 8, !tbaa !9
  store ptr %13, ptr %8, align 8, !tbaa !22
  call void @llvm.lifetime.start.p0(i64 4, ptr %9) #7
  %14 = load ptr, ptr %5, align 8, !tbaa !4
  %15 = load ptr, ptr %6, align 8, !tbaa !46
  %16 = load ptr, ptr %7, align 8, !tbaa !46
  %17 = call i32 @ff_set_common_formats_from_list2(ptr noundef %14, ptr noundef %15, ptr noundef %16, ptr noundef @query_formats.sample_fmts)
  store i32 %17, ptr %9, align 4, !tbaa !40
  %18 = load i32, ptr %9, align 4, !tbaa !40
  %19 = icmp slt i32 %18, 0
  br i1 %19, label %20, label %22

20:                                               ; preds = %3
  %21 = load i32, ptr %9, align 4, !tbaa !40
  store i32 %21, ptr %4, align 4
  store i32 1, ptr %10, align 4
  br label %33

22:                                               ; preds = %3
  %23 = load ptr, ptr %8, align 8, !tbaa !22
  %24 = getelementptr inbounds nuw %struct.LoudNormContext, ptr %23, i32 0, i32 32
  %25 = load i32, ptr %24, align 8, !tbaa !24
  %26 = icmp ne i32 %25, 3
  br i1 %26, label %27, label %32

27:                                               ; preds = %22
  %28 = load ptr, ptr %5, align 8, !tbaa !4
  %29 = load ptr, ptr %6, align 8, !tbaa !46
  %30 = load ptr, ptr %7, align 8, !tbaa !46
  %31 = call i32 @ff_set_common_samplerates_from_list2(ptr noundef %28, ptr noundef %29, ptr noundef %30, ptr noundef @query_formats.input_srate)
  store i32 %31, ptr %4, align 4
  store i32 1, ptr %10, align 4
  br label %33

32:                                               ; preds = %22
  store i32 0, ptr %4, align 4
  store i32 1, ptr %10, align 4
  br label %33

33:                                               ; preds = %32, %27, %20
  call void @llvm.lifetime.end.p0(i64 4, ptr %9) #7
  call void @llvm.lifetime.end.p0(i64 8, ptr %8) #7
  %34 = load i32, ptr %4, align 4
  ret i32 %34
}