; Function Attrs: nounwind uwtable
define internal i32 @query_formats(ptr noundef %0, ptr noundef %1, ptr noundef %2) #2 {
  %4 = getelementptr inbounds nuw i8, ptr %0, i64 72
  %5 = load ptr, ptr %4, align 8, !tbaa !4
  %6 = tail call i32 @ff_set_common_formats_from_list2(ptr noundef %0, ptr noundef %1, ptr noundef %2, ptr noundef nonnull @query_formats.sample_fmts) #10
  %7 = icmp slt i32 %6, 0
  br i1 %7, label %13, label %8

8:                                                ; preds = %3
  %9 = getelementptr inbounds nuw i8, ptr %5, i64 840
  %10 = load i32, ptr %9, align 8, !tbaa !20
  %.not = icmp eq i32 %10, 3
  br i1 %.not, label %13, label %11

11:                                               ; preds = %8
  %12 = tail call i32 @ff_set_common_samplerates_from_list2(ptr noundef nonnull %0, ptr noundef %1, ptr noundef %2, ptr noundef nonnull @query_formats.input_srate) #10
  br label %13

13:                                               ; preds = %8, %3, %11
  %.0 = phi i32 [ %12, %11 ], [ %6, %3 ], [ 0, %8 ]
  ret i32 %.0
}